; Function Attrs: mustprogress uwtable
define hidden noundef zeroext i1 @_ZNK19OpenColorIO_v2_4dev20GradingPrimaryOpData9isInverseERSt10shared_ptrIKS0_E(ptr nocapture noundef nonnull readonly align 8 dereferenceable(192) %this, ptr nocapture noundef nonnull readonly align 8 dereferenceable(16) %r) local_unnamed_addr #3 align 2 {
entry:
  %m_value.i = getelementptr inbounds i8, ptr %this, i64 176
  %0 = load ptr, ptr %m_value.i, align 8
  %m_isDynamic.i.i = getelementptr inbounds i8, ptr %0, i64 12
  %1 = load i8, ptr %m_isDynamic.i.i, align 4
  %2 = and i8 %1, 1
  %tobool.i.i.not = icmp eq i8 %2, 0
  br i1 %tobool.i.i.not, label %lor.lhs.false, label %return

lor.lhs.false:                                    ; preds = %entry
  %3 = load ptr, ptr %r, align 8
  %m_value.i4 = getelementptr inbounds i8, ptr %3, i64 176
  %4 = load ptr, ptr %m_value.i4, align 8
  %m_isDynamic.i.i5 = getelementptr inbounds i8, ptr %4, i64 12
  %5 = load i8, ptr %m_isDynamic.i.i5, align 4
  %6 = and i8 %5, 1
  %tobool.i.i6.not = icmp eq i8 %6, 0
  br i1 %tobool.i.i6.not, label %if.end, label %return

if.end:                                           ; preds = %lor.lhs.false
  %m_style = getelementptr inbounds i8, ptr %this, i64 168
  %7 = load i32, ptr %m_style, align 8
  %m_style5 = getelementptr inbounds i8, ptr %3, i64 168
  %8 = load i32, ptr %m_style5, align 8
  %cmp = icmp eq i32 %7, %8
  br i1 %cmp, label %land.lhs.true, label %if.end19

land.lhs.true:                                    ; preds = %if.end
  %call10 = tail call noundef zeroext i1 @_ZNK19OpenColorIO_v2_4dev19DynamicPropertyImpl6equalsERKS0_(ptr noundef nonnull align 8 dereferenceable(13) %0, ptr noundef nonnull align 8 dereferenceable(13) %4)
  br i1 %call10, label %if.then11, label %if.end19

if.then11:                                        ; preds = %land.lhs.true
  %9 = load ptr, ptr %m_value.i, align 8
  %m_direction.i.i = getelementptr inbounds i8, ptr %9, i64 28
  %10 = load i32, ptr %m_direction.i.i, align 4
  %11 = load ptr, ptr %r, align 8
  %m_value.i8 = getelementptr inbounds i8, ptr %11, i64 176
  %12 = load ptr, ptr %m_value.i8, align 8
  %m_direction.i.i9 = getelementptr inbounds i8, ptr %12, i64 28
  %13 = load i32, ptr %m_direction.i.i9, align 4
  %call15 = tail call noundef i32 @_ZN19OpenColorIO_v2_4dev26CombineTransformDirectionsENS_18TransformDirectionES0_(i32 noundef %10, i32 noundef %13)
  %cmp16 = icmp eq i32 %call15, 1
  br i1 %cmp16, label %return, label %if.end19

if.end19:                                         ; preds = %if.then11, %land.lhs.true, %if.end
  br label %return

return:                                           ; preds = %if.then11, %entry, %lor.lhs.false, %if.end19
  %retval.0 = phi i1 [ false, %if.end19 ], [ false, %lor.lhs.false ], [ false, %entry ], [ true, %if.then11 ]
  ret i1 %retval.0
}